target datalayout = "e-m:e-p270:32:32-p271:32:32-p272:64:64-i64:64-i128:128-f80:128-n8:16:32:64-S128"
target triple = "x86_64-pc-linux-gnu"

%"class.base::SharedMemory" = type { i32, i32, i64, ptr, i8, i64 }

; Function Attrs: mustprogress nounwind uwtable
define noundef zeroext i1 @_ZN4base12SharedMemory5UnmapEv(ptr noundef nonnull align 8 dereferenceable(40) %0) #0 align 2 {
  %2 = alloca i1, align 1
  %3 = alloca ptr, align 8
  store ptr %0, ptr %3, align 8, !tbaa !17
  %4 = load ptr, ptr %3, align 8
  %5 = getelementptr inbounds nuw %"class.base::SharedMemory", ptr %4, i32 0, i32 3
  %6 = load ptr, ptr %5, align 8, !tbaa !24
  %7 = icmp eq ptr %6, null
  br i1 %7, label %8, label %9

8:                                                ; preds = %1
  store i1 false, ptr %2, align 1
  br label %17

9:                                                ; preds = %1
  %10 = getelementptr inbounds nuw %"class.base::SharedMemory", ptr %4, i32 0, i32 3
  %11 = load ptr, ptr %10, align 8, !tbaa !24
  %12 = getelementptr inbounds nuw %"class.base::SharedMemory", ptr %4, i32 0, i32 2
  %13 = load i64, ptr %12, align 8, !tbaa !23
  %14 = call i32 @munmap(ptr noundef %11, i64 noundef %13) #16
  %15 = getelementptr inbounds nuw %"class.base::SharedMemory", ptr %4, i32 0, i32 3
  store ptr null, ptr %15, align 8, !tbaa !24
  %16 = getelementptr inbounds nuw %"class.base::SharedMemory", ptr %4, i32 0, i32 2
  store i64 0, ptr %16, align 8, !tbaa !23
  store i1 true, ptr %2, align 1
  br label %17

17:                                               ; preds = %9, %8
  %18 = load i1, ptr %2, align 1
  ret i1 %18
}

; Function Attrs: mustprogress nounwind uwtable
define void @_ZN4base12SharedMemoryD2Ev(ptr noundef nonnull align 8 dereferenceable(40) %0) unnamed_addr #0 align 2 personality ptr @__gxx_personality_v0 {
  %2 = alloca ptr, align 8
  store ptr %0, ptr %2, align 8, !tbaa !17
  %3 = load ptr, ptr %2, align 8
  %4 = invoke noundef zeroext i1 @_ZN4base12SharedMemory5UnmapEv(ptr noundef nonnull align 8 dereferenceable(40) %3)
          to label %5 unwind label %7

5:                                                ; preds = %1
  invoke void @_ZN4base12SharedMemory5CloseEv(ptr noundef nonnull align 8 dereferenceable(40) %3)
          to label %6 unwind label %7

6:                                                ; preds = %5
  ret void

7:                                                ; preds = %5, %1
  %8 = landingpad { ptr, i32 }
          catch ptr null
  %9 = extractvalue { ptr, i32 } %8, 0
  call void @__clang_call_terminate(ptr %9) #15
  unreachable
}