; Function Attrs: mustprogress nounwind uwtable
define void @_ZN4base12SharedMemoryD2Ev(ptr noundef nonnull align 8 captures(none) dereferenceable(40) %0) unnamed_addr #2 align 2 personality ptr @__gxx_personality_v0 {
  %2 = getelementptr inbounds nuw i8, ptr %0, i64 16
  %3 = load ptr, ptr %2, align 8, !tbaa !23
  %.not = icmp eq ptr %3, null
  br i1 %.not, label %_ZN4base12SharedMemory5UnmapEv.exit, label %4

4:                                                ; preds = %1
  %5 = getelementptr inbounds nuw i8, ptr %0, i64 8
  %6 = load i64, ptr %5, align 8, !tbaa !24
  %7 = tail call i32 @munmap(ptr noundef nonnull %3, i64 noundef %6) #22
  tail call void @llvm.memset.p0.i64(ptr noundef nonnull align 8 dereferenceable(16) %5, i8 0, i64 16, i1 false)
  br label %_ZN4base12SharedMemory5UnmapEv.exit

_ZN4base12SharedMemory5UnmapEv.exit:              ; preds = %1, %4
  invoke void @_ZN4base12SharedMemory5CloseEv(ptr noundef nonnull align 8 dereferenceable(40) %0)
          to label %8 unwind label %9

8:                                                ; preds = %_ZN4base12SharedMemory5UnmapEv.exit
  ret void

9:                                                ; preds = %_ZN4base12SharedMemory5UnmapEv.exit
  %10 = landingpad { ptr, i32 }
          catch ptr null
  %11 = extractvalue { ptr, i32 } %10, 0
  tail call void @__clang_call_terminate(ptr %11) #23
  unreachable
}